; Function Attrs: mustprogress nofree nosync nounwind willreturn memory(read, inaccessiblemem: none) uwtable
define internal fastcc noundef zeroext i1 @_ZN5arrow3ipc12_GLOBAL__N_123HasUnresolvedNestedDictERKNS_9ArrayDataE(ptr noundef nonnull readonly align 8 captures(none) dereferenceable(120) %0) unnamed_addr #19 {
  %2 = load ptr, ptr %0, align 8, !tbaa !123
  %3 = getelementptr inbounds nuw i8, ptr %2, i64 40
  %4 = load i32, ptr %3, align 8, !tbaa !255
  %5 = icmp eq i32 %4, 29
  br i1 %5, label %6, label %11

6:                                                ; preds = %1
  %7 = getelementptr inbounds nuw i8, ptr %0, i64 88
  %8 = load ptr, ptr %7, align 8, !tbaa !142
  %.not.i = icmp eq ptr %8, null
  br i1 %.not.i, label %.loopexit, label %9

9:                                                ; preds = %6
  %10 = tail call fastcc noundef zeroext i1 @_ZN5arrow3ipc12_GLOBAL__N_123HasUnresolvedNestedDictERKNS_9ArrayDataE(ptr noundef nonnull align 8 dereferenceable(120) %8)
  br i1 %10, label %.loopexit, label %11

11:                                               ; preds = %9, %1
  %12 = getelementptr inbounds nuw i8, ptr %0, i64 64
  %13 = load ptr, ptr %12, align 8, !tbaa !136
  %14 = getelementptr inbounds nuw i8, ptr %0, i64 72
  %15 = load ptr, ptr %14, align 8, !tbaa !136
  %.not14.not = icmp eq ptr %13, %15
  br i1 %.not14.not, label %.loopexit, label %.lr.ph

.lr.ph:                                           ; preds = %11, %.lr.ph
  %.sroa.011.015 = phi ptr [ %18, %.lr.ph ], [ %13, %11 ]
  %16 = load ptr, ptr %.sroa.011.015, align 8, !tbaa !142
  %17 = tail call fastcc noundef zeroext i1 @_ZN5arrow3ipc12_GLOBAL__N_123HasUnresolvedNestedDictERKNS_9ArrayDataE(ptr noundef nonnull align 8 dereferenceable(120) %16)
  %18 = getelementptr inbounds nuw i8, ptr %.sroa.011.015, i64 16
  %.not.not = icmp eq ptr %18, %15
  %or.cond = select i1 %17, i1 true, i1 %.not.not
  br i1 %or.cond, label %.loopexit, label %.lr.ph

.loopexit:                                        ; preds = %.lr.ph, %11, %9, %6
  %.0 = phi i1 [ true, %6 ], [ true, %9 ], [ false, %11 ], [ %17, %.lr.ph ]
  ret i1 %.0
}